target datalayout = "e-m:e-p270:32:32-p271:32:32-p272:64:64-i64:64-i128:128-f80:128-n8:16:32:64-S128"
target triple = "x86_64-pc-linux-gnu"

%struct.sock_gres = type { ptr, ptr, i64, ptr, ptr, ptr, i64, i32, i64, i64, i8 }
%struct.gres_state = type { i32, i32, ptr, ptr, i32 }
%struct.gres_job_state = type { i32, ptr, i16, i16, i64, i64, i64, i64, i64, i16, i16, i64, i32, ptr, ptr, ptr, ptr, i32, i64, i32, ptr, ptr, ptr, ptr, ptr, ptr }
%struct.gres_node_state = type { ptr, i64, i64, i8, i8, i64, ptr, i64, ptr, i16, i32, ptr, ptr, ptr, ptr, ptr, ptr, ptr, ptr, i16, ptr, ptr, ptr, ptr }

@.str.21 = private unnamed_addr constant [64 x i8] c"topo_gres_cnt_alloc or avail not set. This should never happen.\00", align 1

; Function Attrs: nounwind uwtable
define internal void @_pick_shared_gres_topo(ptr noundef %0, i1 noundef zeroext %1, i1 noundef zeroext %2, i1 noundef zeroext %3, i32 noundef %4, i32 noundef %5, ptr noundef %6, ptr noundef %7) #0 {
  %9 = alloca ptr, align 8
  %10 = alloca i8, align 1
  %11 = alloca i8, align 1
  %12 = alloca i8, align 1
  %13 = alloca i32, align 4
  %14 = alloca i32, align 4
  %15 = alloca ptr, align 8
  %16 = alloca ptr, align 8
  %17 = alloca i64, align 8
  %18 = alloca i64, align 8
  %19 = alloca ptr, align 8
  %20 = alloca ptr, align 8
  %21 = alloca ptr, align 8
  %22 = alloca i32, align 4
  %23 = alloca i32, align 4
  %24 = alloca i32, align 4
  store ptr %0, ptr %9, align 8
  %25 = zext i1 %1 to i8
  store i8 %25, ptr %10, align 1
  %26 = zext i1 %2 to i8
  store i8 %26, ptr %11, align 1
  %27 = zext i1 %3 to i8
  store i8 %27, ptr %12, align 1
  store i32 %4, ptr %13, align 4
  store i32 %5, ptr %14, align 4
  store ptr %6, ptr %15, align 8
  store ptr %7, ptr %16, align 8
  call void @llvm.lifetime.start.p0(i64 8, ptr %17) #5
  call void @llvm.lifetime.start.p0(i64 8, ptr %18) #5
  call void @llvm.lifetime.start.p0(i64 8, ptr %19) #5
  %28 = load ptr, ptr %9, align 8
  %29 = getelementptr inbounds nuw %struct.sock_gres, ptr %28, i32 0, i32 4
  %30 = load ptr, ptr %29, align 8
  %31 = getelementptr inbounds nuw %struct.gres_state, ptr %30, i32 0, i32 2
  %32 = load ptr, ptr %31, align 8
  store ptr %32, ptr %19, align 8
  call void @llvm.lifetime.start.p0(i64 8, ptr %20) #5
  %33 = load ptr, ptr %9, align 8
  %34 = getelementptr inbounds nuw %struct.sock_gres, ptr %33, i32 0, i32 5
  %35 = load ptr, ptr %34, align 8
  %36 = getelementptr inbounds nuw %struct.gres_state, ptr %35, i32 0, i32 2
  %37 = load ptr, ptr %36, align 8
  store ptr %37, ptr %20, align 8
  call void @llvm.lifetime.start.p0(i64 8, ptr %21) #5
  %38 = load i32, ptr %14, align 4
  %39 = icmp eq i32 %38, -1
  br i1 %39, label %40, label %51

40:                                               ; preds = %8
  %41 = load ptr, ptr %9, align 8
  %42 = getelementptr inbounds nuw %struct.sock_gres, ptr %41, i32 0, i32 0
  %43 = load ptr, ptr %42, align 8
  %44 = icmp ne ptr %43, null
  br i1 %44, label %45, label %49

45:                                               ; preds = %40
  %46 = load ptr, ptr %9, align 8
  %47 = getelementptr inbounds nuw %struct.sock_gres, ptr %46, i32 0, i32 0
  %48 = load ptr, ptr %47, align 8
  store ptr %48, ptr %21, align 8
  br label %50

49:                                               ; preds = %40
  store i32 1, ptr %22, align 4
  br label %272

50:                                               ; preds = %45
  br label %75

51:                                               ; preds = %8
  %52 = load ptr, ptr %9, align 8
  %53 = getelementptr inbounds nuw %struct.sock_gres, ptr %52, i32 0, i32 1
  %54 = load ptr, ptr %53, align 8
  %55 = icmp ne ptr %54, null
  br i1 %55, label %56, label %73

56:                                               ; preds = %51
  %57 = load ptr, ptr %9, align 8
  %58 = getelementptr inbounds nuw %struct.sock_gres, ptr %57, i32 0, i32 1
  %59 = load ptr, ptr %58, align 8
  %60 = load i32, ptr %14, align 4
  %61 = sext i32 %60 to i64
  %62 = getelementptr inbounds ptr, ptr %59, i64 %61
  %63 = load ptr, ptr %62, align 8
  %64 = icmp ne ptr %63, null
  br i1 %64, label %65, label %73

65:                                               ; preds = %56
  %66 = load ptr, ptr %9, align 8
  %67 = getelementptr inbounds nuw %struct.sock_gres, ptr %66, i32 0, i32 1
  %68 = load ptr, ptr %67, align 8
  %69 = load i32, ptr %14, align 4
  %70 = sext i32 %69 to i64
  %71 = getelementptr inbounds ptr, ptr %68, i64 %70
  %72 = load ptr, ptr %71, align 8
  store ptr %72, ptr %21, align 8
  br label %74

73:                                               ; preds = %56, %51
  store i32 1, ptr %22, align 4
  br label %272

74:                                               ; preds = %65
  br label %75

75:                                               ; preds = %74, %50
  %76 = load ptr, ptr %20, align 8
  %77 = getelementptr inbounds nuw %struct.gres_node_state, ptr %76, i32 0, i32 15
  %78 = load ptr, ptr %77, align 8
  %79 = icmp ne ptr %78, null
  br i1 %79, label %80, label %85

80:                                               ; preds = %75
  %81 = load ptr, ptr %20, align 8
  %82 = getelementptr inbounds nuw %struct.gres_node_state, ptr %81, i32 0, i32 16
  %83 = load ptr, ptr %82, align 8
  %84 = icmp ne ptr %83, null
  br i1 %84, label %87, label %85

85:                                               ; preds = %80, %75
  %86 = call i32 (ptr, ...) @slurm_error(ptr noundef @.str.21)
  store i32 1, ptr %22, align 4
  br label %272

87:                                               ; preds = %80
  call void @llvm.lifetime.start.p0(i64 4, ptr %23) #5
  store i32 0, ptr %23, align 4
  br label %88

88:                                               ; preds = %268, %87
  %89 = load i32, ptr %23, align 4
  %90 = load ptr, ptr %20, align 8
  %91 = getelementptr inbounds nuw %struct.gres_node_state, ptr %90, i32 0, i32 9
  %92 = load i16, ptr %91, align 8
  %93 = zext i16 %92 to i32
  %94 = icmp slt i32 %89, %93
  br i1 %94, label %95, label %99

95:                                               ; preds = %88
  %96 = load ptr, ptr %15, align 8
  %97 = load i64, ptr %96, align 8
  %98 = icmp ne i64 %97, 0
  br label %99

99:                                               ; preds = %95, %88
  %100 = phi i1 [ false, %88 ], [ %98, %95 ]
  br i1 %100, label %102, label %101

101:                                              ; preds = %99
  store i32 2, ptr %22, align 4
  call void @llvm.lifetime.end.p0(i64 4, ptr %23) #5
  br label %271

102:                                              ; preds = %99
  call void @llvm.lifetime.start.p0(i64 4, ptr %24) #5
  %103 = load ptr, ptr %16, align 8
  %104 = icmp ne ptr %103, null
  br i1 %104, label %105, label %111

105:                                              ; preds = %102
  %106 = load ptr, ptr %16, align 8
  %107 = load i32, ptr %23, align 4
  %108 = sext i32 %107 to i64
  %109 = getelementptr inbounds i32, ptr %106, i64 %108
  %110 = load i32, ptr %109, align 4
  br label %113

111:                                              ; preds = %102
  %112 = load i32, ptr %23, align 4
  br label %113

113:                                              ; preds = %111, %105
  %114 = phi i32 [ %110, %105 ], [ %112, %111 ]
  store i32 %114, ptr %24, align 4
  %115 = load ptr, ptr %19, align 8
  %116 = getelementptr inbounds nuw %struct.gres_job_state, ptr %115, i32 0, i32 0
  %117 = load i32, ptr %116, align 8
  %118 = icmp ne i32 %117, 0
  br i1 %118, label %119, label %132

119:                                              ; preds = %113
  %120 = load ptr, ptr %19, align 8
  %121 = getelementptr inbounds nuw %struct.gres_job_state, ptr %120, i32 0, i32 0
  %122 = load i32, ptr %121, align 8
  %123 = load ptr, ptr %20, align 8
  %124 = getelementptr inbounds nuw %struct.gres_node_state, ptr %123, i32 0, i32 17
  %125 = load ptr, ptr %124, align 8
  %126 = load i32, ptr %24, align 4
  %127 = sext i32 %126 to i64
  %128 = getelementptr inbounds i32, ptr %125, i64 %127
  %129 = load i32, ptr %128, align 4
  %130 = icmp ne i32 %122, %129
  br i1 %130, label %131, label %132

131:                                              ; preds = %119
  store i32 4, ptr %22, align 4
  br label %265

132:                                              ; preds = %119, %113
  %133 = load i8, ptr %10, align 1, !range !8, !noundef !9
  %134 = trunc i8 %133 to i1
  br i1 %134, label %135, label %145

135:                                              ; preds = %132
  %136 = load ptr, ptr %20, align 8
  %137 = getelementptr inbounds nuw %struct.gres_node_state, ptr %136, i32 0, i32 15
  %138 = load ptr, ptr %137, align 8
  %139 = load i32, ptr %24, align 4
  %140 = sext i32 %139 to i64
  %141 = getelementptr inbounds i64, ptr %138, i64 %140
  %142 = load i64, ptr %141, align 8
  %143 = icmp eq i64 %142, 0
  br i1 %143, label %144, label %145

144:                                              ; preds = %135
  store i32 4, ptr %22, align 4
  br label %265

145:                                              ; preds = %135, %132
  %146 = load ptr, ptr %20, align 8
  %147 = getelementptr inbounds nuw %struct.gres_node_state, ptr %146, i32 0, i32 16
  %148 = load ptr, ptr %147, align 8
  %149 = load i32, ptr %24, align 4
  %150 = sext i32 %149 to i64
  %151 = getelementptr inbounds i64, ptr %148, i64 %150
  %152 = load i64, ptr %151, align 8
  %153 = load ptr, ptr %19, align 8
  %154 = getelementptr inbounds nuw %struct.gres_job_state, ptr %153, i32 0, i32 15
  %155 = load ptr, ptr %154, align 8
  %156 = load i32, ptr %13, align 4
  %157 = sext i32 %156 to i64
  %158 = getelementptr inbounds ptr, ptr %155, i64 %157
  %159 = load ptr, ptr %158, align 8
  %160 = load i32, ptr %24, align 4
  %161 = sext i32 %160 to i64
  %162 = getelementptr inbounds i64, ptr %159, i64 %161
  %163 = load i64, ptr %162, align 8
  %164 = sub i64 %152, %163
  store i64 %164, ptr %18, align 8
  %165 = load ptr, ptr %9, align 8
  %166 = getelementptr inbounds nuw %struct.sock_gres, ptr %165, i32 0, i32 10
  %167 = load i8, ptr %166, align 8, !range !8, !noundef !9
  %168 = trunc i8 %167 to i1
  br i1 %168, label %179, label %169

169:                                              ; preds = %145
  %170 = load ptr, ptr %20, align 8
  %171 = getelementptr inbounds nuw %struct.gres_node_state, ptr %170, i32 0, i32 15
  %172 = load ptr, ptr %171, align 8
  %173 = load i32, ptr %24, align 4
  %174 = sext i32 %173 to i64
  %175 = getelementptr inbounds i64, ptr %172, i64 %174
  %176 = load i64, ptr %175, align 8
  %177 = load i64, ptr %18, align 8
  %178 = sub i64 %177, %176
  store i64 %178, ptr %18, align 8
  br label %179

179:                                              ; preds = %169, %145
  %180 = load i64, ptr %18, align 8
  %181 = load i8, ptr %11, align 1, !range !8, !noundef !9
  %182 = trunc i8 %181 to i1
  br i1 %182, label %183, label %186

183:                                              ; preds = %179
  %184 = load ptr, ptr %15, align 8
  %185 = load i64, ptr %184, align 8
  br label %187

186:                                              ; preds = %179
  br label %187

187:                                              ; preds = %186, %183
  %188 = phi i64 [ %185, %183 ], [ 1, %186 ]
  %189 = icmp ult i64 %180, %188
  br i1 %189, label %190, label %191

190:                                              ; preds = %187
  store i32 4, ptr %22, align 4
  br label %265

191:                                              ; preds = %187
  %192 = load ptr, ptr %21, align 8
  %193 = load i32, ptr %24, align 4
  %194 = sext i32 %193 to i64
  %195 = call i32 @slurm_bit_test(ptr noundef %192, i64 noundef %194)
  %196 = icmp ne i32 %195, 0
  br i1 %196, label %198, label %197

197:                                              ; preds = %191
  store i32 4, ptr %22, align 4
  br label %265

198:                                              ; preds = %191
  %199 = load i8, ptr %12, align 1, !range !8, !noundef !9
  %200 = trunc i8 %199 to i1
  br i1 %200, label %201, label %214

201:                                              ; preds = %198
  %202 = load ptr, ptr %19, align 8
  %203 = getelementptr inbounds nuw %struct.gres_job_state, ptr %202, i32 0, i32 13
  %204 = load ptr, ptr %203, align 8
  %205 = load i32, ptr %13, align 4
  %206 = sext i32 %205 to i64
  %207 = getelementptr inbounds ptr, ptr %204, i64 %206
  %208 = load ptr, ptr %207, align 8
  %209 = load i32, ptr %24, align 4
  %210 = sext i32 %209 to i64
  %211 = call i32 @slurm_bit_test(ptr noundef %208, i64 noundef %210)
  %212 = icmp ne i32 %211, 0
  br i1 %212, label %213, label %214

213:                                              ; preds = %201
  store i32 4, ptr %22, align 4
  br label %265

214:                                              ; preds = %201, %198
  %215 = load i64, ptr %18, align 8
  %216 = load ptr, ptr %15, align 8
  %217 = load i64, ptr %216, align 8
  %218 = icmp ult i64 %215, %217
  br i1 %218, label %219, label %221

219:                                              ; preds = %214
  %220 = load i64, ptr %18, align 8
  br label %224

221:                                              ; preds = %214
  %222 = load ptr, ptr %15, align 8
  %223 = load i64, ptr %222, align 8
  br label %224

224:                                              ; preds = %221, %219
  %225 = phi i64 [ %220, %219 ], [ %223, %221 ]
  store i64 %225, ptr %17, align 8
  %226 = load i64, ptr %17, align 8
  %227 = icmp ne i64 %226, 0
  br i1 %227, label %229, label %228

228:                                              ; preds = %224
  store i32 4, ptr %22, align 4
  br label %265

229:                                              ; preds = %224
  %230 = load ptr, ptr %19, align 8
  %231 = getelementptr inbounds nuw %struct.gres_job_state, ptr %230, i32 0, i32 13
  %232 = load ptr, ptr %231, align 8
  %233 = load i32, ptr %13, align 4
  %234 = sext i32 %233 to i64
  %235 = getelementptr inbounds ptr, ptr %232, i64 %234
  %236 = load ptr, ptr %235, align 8
  %237 = load i32, ptr %24, align 4
  %238 = sext i32 %237 to i64
  call void @slurm_bit_set(ptr noundef %236, i64 noundef %238)
  %239 = load i64, ptr %17, align 8
  %240 = load ptr, ptr %19, align 8
  %241 = getelementptr inbounds nuw %struct.gres_job_state, ptr %240, i32 0, i32 14
  %242 = load ptr, ptr %241, align 8
  %243 = load i32, ptr %13, align 4
  %244 = sext i32 %243 to i64
  %245 = getelementptr inbounds i64, ptr %242, i64 %244
  %246 = load i64, ptr %245, align 8
  %247 = add i64 %246, %239
  store i64 %247, ptr %245, align 8
  %248 = load i64, ptr %17, align 8
  %249 = load ptr, ptr %19, align 8
  %250 = getelementptr inbounds nuw %struct.gres_job_state, ptr %249, i32 0, i32 15
  %251 = load ptr, ptr %250, align 8
  %252 = load i32, ptr %13, align 4
  %253 = sext i32 %252 to i64
  %254 = getelementptr inbounds ptr, ptr %251, i64 %253
  %255 = load ptr, ptr %254, align 8
  %256 = load i32, ptr %24, align 4
  %257 = sext i32 %256 to i64
  %258 = getelementptr inbounds i64, ptr %255, i64 %257
  %259 = load i64, ptr %258, align 8
  %260 = add i64 %259, %248
  store i64 %260, ptr %258, align 8
  %261 = load i64, ptr %17, align 8
  %262 = load ptr, ptr %15, align 8
  %263 = load i64, ptr %262, align 8
  %264 = sub i64 %263, %261
  store i64 %264, ptr %262, align 8
  store i32 0, ptr %22, align 4
  br label %265

265:                                              ; preds = %229, %228, %213, %197, %190, %144, %131
  call void @llvm.lifetime.end.p0(i64 4, ptr %24) #5
  %266 = load i32, ptr %22, align 4
  switch i32 %266, label %275 [
    i32 0, label %267
    i32 4, label %268
  ]

267:                                              ; preds = %265
  br label %268

268:                                              ; preds = %267, %265
  %269 = load i32, ptr %23, align 4
  %270 = add nsw i32 %269, 1
  store i32 %270, ptr %23, align 4
  br label %88, !llvm.loop !68

271:                                              ; preds = %101
  store i32 0, ptr %22, align 4
  br label %272

272:                                              ; preds = %271, %85, %73, %49
  call void @llvm.lifetime.end.p0(i64 8, ptr %21) #5
  call void @llvm.lifetime.end.p0(i64 8, ptr %20) #5
  call void @llvm.lifetime.end.p0(i64 8, ptr %19) #5
  call void @llvm.lifetime.end.p0(i64 8, ptr %18) #5
  call void @llvm.lifetime.end.p0(i64 8, ptr %17) #5
  %273 = load i32, ptr %22, align 4
  switch i32 %273, label %275 [
    i32 0, label %274
    i32 1, label %274
  ]

274:                                              ; preds = %272, %272
  ret void

275:                                              ; preds = %272, %265
  unreachable
}