; Function Attrs: nounwind uwtable
define internal fastcc void @_pick_shared_gres_topo(ptr noundef readonly captures(none) %0, i1 noundef zeroext %1, i1 noundef zeroext %2, i1 noundef zeroext %3, i32 noundef %4, i32 noundef %5, ptr noundef nonnull captures(none) %6, ptr noundef readonly captures(address_is_null) %7) unnamed_addr #0 {
  %9 = getelementptr inbounds nuw i8, ptr %0, i64 32
  %10 = load ptr, ptr %9, align 8
  %11 = getelementptr inbounds nuw i8, ptr %10, i64 8
  %12 = load ptr, ptr %11, align 8
  %13 = getelementptr inbounds nuw i8, ptr %0, i64 40
  %14 = load ptr, ptr %13, align 8
  %15 = getelementptr inbounds nuw i8, ptr %14, i64 8
  %16 = load ptr, ptr %15, align 8
  %17 = icmp eq i32 %5, -1
  br i1 %17, label %18, label %20

18:                                               ; preds = %8
  %19 = load ptr, ptr %0, align 8
  %.not72 = icmp eq ptr %19, null
  br i1 %.not72, label %.critedge, label %27

20:                                               ; preds = %8
  %21 = getelementptr inbounds nuw i8, ptr %0, i64 8
  %22 = load ptr, ptr %21, align 8
  %.not = icmp eq ptr %22, null
  br i1 %.not, label %.critedge, label %23

23:                                               ; preds = %20
  %24 = sext i32 %5 to i64
  %25 = getelementptr inbounds ptr, ptr %22, i64 %24
  %26 = load ptr, ptr %25, align 8
  %.not71 = icmp eq ptr %26, null
  br i1 %.not71, label %.critedge, label %27

27:                                               ; preds = %23, %18
  %.062 = phi ptr [ %19, %18 ], [ %26, %23 ]
  %28 = getelementptr inbounds nuw i8, ptr %16, i64 104
  %29 = load ptr, ptr %28, align 8
  %.not73 = icmp eq ptr %29, null
  br i1 %.not73, label %41, label %30

30:                                               ; preds = %27
  %31 = getelementptr inbounds nuw i8, ptr %16, i64 112
  %32 = load ptr, ptr %31, align 8
  %.not74 = icmp eq ptr %32, null
  br i1 %.not74, label %41, label %.preheader

.preheader:                                       ; preds = %30
  %33 = getelementptr inbounds nuw i8, ptr %16, i64 64
  %34 = load i16, ptr %33, align 8
  %.not84 = icmp eq i16 %34, 0
  br i1 %.not84, label %.critedge, label %.lr.ph

.lr.ph:                                           ; preds = %.preheader
  %.not76 = icmp eq ptr %7, null
  %35 = getelementptr inbounds nuw i8, ptr %16, i64 120
  %36 = getelementptr inbounds nuw i8, ptr %12, i64 104
  %37 = sext i32 %4 to i64
  %38 = getelementptr inbounds nuw i8, ptr %0, i64 80
  %39 = getelementptr inbounds nuw i8, ptr %12, i64 88
  %40 = getelementptr inbounds nuw i8, ptr %12, i64 96
  br label %43

41:                                               ; preds = %30, %27
  %42 = tail call i32 (ptr, ...) @slurm_error(ptr noundef nonnull @.str.21) #8
  br label %.critedge

43:                                               ; preds = %.lr.ph, %110
  %indvars.iv = phi i64 [ 0, %.lr.ph ], [ %indvars.iv.next, %110 ]
  %44 = load i64, ptr %6, align 8
  %.not75 = icmp eq i64 %44, 0
  br i1 %.not75, label %.critedge, label %45

45:                                               ; preds = %43
  %46 = trunc nuw nsw i64 %indvars.iv to i32
  br i1 %.not76, label %50, label %47

47:                                               ; preds = %45
  %48 = getelementptr inbounds nuw i32, ptr %7, i64 %indvars.iv
  %49 = load i32, ptr %48, align 4
  br label %50

50:                                               ; preds = %45, %47
  %51 = phi i32 [ %49, %47 ], [ %46, %45 ]
  %52 = load i32, ptr %12, align 8
  %.not77 = icmp eq i32 %52, 0
  br i1 %.not77, label %58, label %53

53:                                               ; preds = %50
  %54 = load ptr, ptr %35, align 8
  %55 = sext i32 %51 to i64
  %56 = getelementptr inbounds i32, ptr %54, i64 %55
  %57 = load i32, ptr %56, align 4
  %.not78 = icmp eq i32 %52, %57
  br i1 %.not78, label %58, label %110

58:                                               ; preds = %53, %50
  br i1 %1, label %59, label %._crit_edge

._crit_edge:                                      ; preds = %58
  %.pre = sext i32 %51 to i64
  br label %65

59:                                               ; preds = %58
  %60 = load ptr, ptr %28, align 8
  %61 = sext i32 %51 to i64
  %62 = getelementptr inbounds i64, ptr %60, i64 %61
  %63 = load i64, ptr %62, align 8
  %64 = icmp eq i64 %63, 0
  br i1 %64, label %110, label %65

65:                                               ; preds = %._crit_edge, %59
  %.pre-phi = phi i64 [ %.pre, %._crit_edge ], [ %61, %59 ]
  %66 = load ptr, ptr %31, align 8
  %67 = getelementptr inbounds i64, ptr %66, i64 %.pre-phi
  %68 = load i64, ptr %67, align 8
  %69 = load ptr, ptr %36, align 8
  %70 = getelementptr inbounds ptr, ptr %69, i64 %37
  %71 = load ptr, ptr %70, align 8
  %72 = getelementptr inbounds i64, ptr %71, i64 %.pre-phi
  %73 = load i64, ptr %72, align 8
  %74 = sub i64 %68, %73
  %75 = load i8, ptr %38, align 8, !range !12, !noundef !13
  %76 = trunc nuw i8 %75 to i1
  br i1 %76, label %82, label %77

77:                                               ; preds = %65
  %78 = load ptr, ptr %28, align 8
  %79 = getelementptr inbounds i64, ptr %78, i64 %.pre-phi
  %80 = load i64, ptr %79, align 8
  %81 = sub i64 %74, %80
  br label %82

82:                                               ; preds = %77, %65
  %.0 = phi i64 [ %74, %65 ], [ %81, %77 ]
  %spec.select = select i1 %2, i64 %44, i64 1
  %83 = icmp ult i64 %.0, %spec.select
  br i1 %83, label %110, label %84

84:                                               ; preds = %82
  %85 = tail call i32 @slurm_bit_test(ptr noundef nonnull %.062, i64 noundef %.pre-phi) #8
  %.not79 = icmp eq i32 %85, 0
  br i1 %.not79, label %110, label %86

86:                                               ; preds = %84
  br i1 %3, label %87, label %92

87:                                               ; preds = %86
  %88 = load ptr, ptr %39, align 8
  %89 = getelementptr inbounds ptr, ptr %88, i64 %37
  %90 = load ptr, ptr %89, align 8
  %91 = tail call i32 @slurm_bit_test(ptr noundef %90, i64 noundef %.pre-phi) #8
  %.not80 = icmp eq i32 %91, 0
  br i1 %.not80, label %92, label %110

92:                                               ; preds = %87, %86
  %93 = load i64, ptr %6, align 8
  %.0. = tail call i64 @llvm.umin.i64(i64 %.0, i64 %93)
  %.not81 = icmp eq i64 %.0., 0
  br i1 %.not81, label %110, label %94

94:                                               ; preds = %92
  %95 = load ptr, ptr %39, align 8
  %96 = getelementptr inbounds ptr, ptr %95, i64 %37
  %97 = load ptr, ptr %96, align 8
  tail call void @slurm_bit_set(ptr noundef %97, i64 noundef %.pre-phi) #8
  %98 = load ptr, ptr %40, align 8
  %99 = getelementptr inbounds i64, ptr %98, i64 %37
  %100 = load i64, ptr %99, align 8
  %101 = add i64 %100, %.0.
  store i64 %101, ptr %99, align 8
  %102 = load ptr, ptr %36, align 8
  %103 = getelementptr inbounds ptr, ptr %102, i64 %37
  %104 = load ptr, ptr %103, align 8
  %105 = getelementptr inbounds i64, ptr %104, i64 %.pre-phi
  %106 = load i64, ptr %105, align 8
  %107 = add i64 %106, %.0.
  store i64 %107, ptr %105, align 8
  %108 = load i64, ptr %6, align 8
  %109 = sub i64 %108, %.0.
  store i64 %109, ptr %6, align 8
  br label %110

110:                                              ; preds = %92, %87, %84, %82, %59, %53, %94
  %indvars.iv.next = add nuw nsw i64 %indvars.iv, 1
  %111 = load i16, ptr %33, align 8
  %112 = zext i16 %111 to i64
  %113 = icmp samesign ult i64 %indvars.iv.next, %112
  br i1 %113, label %43, label %.critedge, !llvm.loop !66

.critedge:                                        ; preds = %110, %43, %.preheader, %20, %23, %18, %41
  ret void
}